(dp0
S'testlefur'
p1
Varnaud.lefur@lam.fr
p2
sS'kdohlen'
p3
S'kjetil.dohlen@lam.fr'
p4
sVdlemigna
p5
Vdavid.lemignant@lam.fr
p6
sS'fmadec'
p7
S'fabrice.madec@lam.fr'
p8
sS'alefur'
p9
S'arnaud.le.fur.29@gmail.com'
p10
s.