(dp0
(ixmpp.protocol
JID
p1
(dp2
S'node'
p3
Vtestlefur
p4
sS'domain'
p5
Vjappix.com
p6
sS'resource'
p7
VJappix (1468930215548)
p8
sbV211049@laposte.net
p9
s(ixmpp.protocol
JID
p10
(dp11
g3
Vtestlefur
p12
sg5
Vjappix.com
p13
sg7
VJappix (1468947715597)
p14
sbV211049@laposte.net
p15
s(ixmpp.protocol
JID
p16
(dp17
g3
Vtestlefur
p18
sg5
Vjappix.com
p19
sg7
VJappix (1469099373762)
p20
sbVarnaud.lefur@lam.fr
p21
s(ixmpp.protocol
JID
p22
(dp23
g3
Vfmadec
p24
sg5
Vjappix.com
p25
sg7
VandroidMsOpEB4A
p26
sbVfabrice.madec@lam.fr
p27
s(ixmpp.protocol
JID
p28
(dp29
g3
Vtestlefur
p30
sg5
Vjappix.com
p31
sg7
VJappix (1468933054857)
p32
sbV211049@laposte.net
p33
s(ixmpp.protocol
JID
p34
(dp35
g3
Vtestlefur
p36
sg5
Vjappix.com
p37
sg7
VJappix (1469098298921)
p38
sbVarnaud.lefur@lam.fr
p39
s(ixmpp.protocol
JID
p40
(dp41
g3
Vtestlefur
p42
sg5
Vjappix.com
p43
sg7
VJappix (1469180464225)
p44
sbV211049@laposte.net
p45
s(ixmpp.protocol
JID
p46
(dp47
g3
Valefur
p48
sg5
Vjappix.com
p49
sg7
Vandroid7vjhDc30
p50
sbVarnaud.le.fur.29@gmail.com
p51
s(ixmpp.protocol
JID
p52
(dp53
g3
Vtestlefur
p54
sg5
Vjappix.com
p55
sg7
VJappix (1469172357806)
p56
sbV211049@laposte.net
p57
s(ixmpp.protocol
JID
p58
(dp59
g3
Vtestlefur
p60
sg5
Vjappix.com
p61
sg7
VJappix (1469023267938)
p62
sbV211049@laposte.net
p63
s(ixmpp.protocol
JID
p64
(dp65
g3
Vtestlefur
p66
sg5
Vjappix.com
p67
sg7
VJappix (1468922012689)
p68
sbVarnaud.lefur@lam.fr
p69
s(ixmpp.protocol
JID
p70
(dp71
g3
Vtestlefur
p72
sg5
Vjappix.com
p73
sg7
VJappix (1469096912409)
p74
sbVarnaud.lefur@lam.fr
p75
s(ixmpp.protocol
JID
p76
(dp77
g3
Vkdohlen
p78
sg5
Vjappix.com
p79
sg7
VAstraChat-iOS-31302968
p80
sbVkjetil.dohlen@lam.fr
p81
s(ixmpp.protocol
JID
p82
(dp83
g3
Vtestlefur
p84
sg5
Vjappix.com
p85
sg7
VJappix (1468933496226)
p86
sbV211049@laposte.net
p87
s.