(lp0
(ixmpp.protocol
JID
p1
(dp2
S'node'
p3
Vfmadec
p4
sS'domain'
p5
Vjappix.com
p6
sS'resource'
p7
VandroidMsOpEB4A
p8
sba(ixmpp.protocol
JID
p9
(dp10
g3
Vkdohlen
p11
sg5
Vjappix.com
p12
sg7
VMonal-iOS
p13
sba(ixmpp.protocol
JID
p14
(dp15
g3
Valefur
p16
sg5
Vjappix.com
p17
sg7
VandroidQCu84OI5
p18
sba.