(dp0
S'cooler'
p1
(lp2
S'WARNING    Cooler Power : 0.0  (W)  on    03/06/2016 08:58:58'
p3
asS'pressure'
p4
(lp5
S' WARNING    Pressure :  1.321e-04  (Torr)   on    03/06/2016 08:58:53'
p6
asS'gatevalve'
p7
(lp8
sS'turbo'
p9
(lp10
s.