(lp0
(ixmpp.protocol
JID
p1
(dp2
S'node'
p3
Valefur
p4
sS'domain'
p5
Vlam.fr
p6
sS'resource'
p7
Vandroid5GD8B0fd
p8
sba(ixmpp.protocol
JID
p9
(dp10
g3
Vfmadec
p11
sg5
Vlam.fr
p12
sg7
VandroidzXeD2t5t
p13
sba(ixmpp.protocol
JID
p14
(dp15
g3
Vdlemigna
p16
sg5
Vlam.fr
p17
sg7
VMonal-iOS
p18
sba(ixmpp.protocol
JID
p19
(dp20
g3
Valefur
p21
sg5
Vlam.fr
p22
sg7
VKadu-5a109d55-53f8-498c-8d6c-46bc22aac795
p23
sba.