(dp0
Valefur
p1
(ixmpp.protocol
JID
p2
(dp3
S'node'
p4
Valefur
p5
sS'domain'
p6
Vlam.fr
p7
sS'resource'
p8
VKadu-5a109d55-53f8-498c-8d6c-46bc22aac795
p9
sbsVfmadec
p10
(ixmpp.protocol
JID
p11
(dp12
g4
g10
sg6
Vlam.fr
p13
sg8
VandroidzXeD2t5t
p14
sbsVdlemigna
p15
(ixmpp.protocol
JID
p16
(dp17
g4
g15
sg6
Vlam.fr
p18
sg8
VMonal-iOS
p19
sbs.