(lp0
(ixmpp.protocol
JID
p1
(dp2
S'node'
p3
Valefur
p4
sS'domain'
p5
Vjappix.com
p6
sS'resource'
p7
Vandroid7vjhDc30
p8
sba(ixmpp.protocol
JID
p9
(dp10
g3
Vfmadec
p11
sg5
Vjappix.com
p12
sg7
VandroidMsOpEB4A
p13
sba.